target datalayout = "e-m:e-p270:32:32-p271:32:32-p272:64:64-i64:64-i128:128-f80:128-n8:16:32:64-S128"
target triple = "x86_64-pc-linux-gnu"

%struct.AVProbeData = type { ptr, ptr, i32, ptr }

@.str.2 = private unnamed_addr constant [11 x i8] c"%ld,%ld,%c\00", align 1
@.str.3 = private unnamed_addr constant [2 x i8] c"\22\00", align 1
@.str.4 = private unnamed_addr constant [3 x i8] c"\0D\0A\00", align 1

; Function Attrs: nounwind uwtable
define internal i32 @pjs_probe(ptr noundef %0) #0 {
  %2 = alloca i32, align 4
  %3 = alloca ptr, align 8
  %4 = alloca i8, align 1
  %5 = alloca i64, align 8
  %6 = alloca i64, align 8
  %7 = alloca ptr, align 8
  %8 = alloca i64, align 8
  %9 = alloca i64, align 8
  %10 = alloca i32, align 4
  store ptr %0, ptr %3, align 8, !tbaa !4
  call void @llvm.lifetime.start.p0(i64 1, ptr %4) #6
  call void @llvm.lifetime.start.p0(i64 8, ptr %5) #6
  call void @llvm.lifetime.start.p0(i64 8, ptr %6) #6
  call void @llvm.lifetime.start.p0(i64 8, ptr %7) #6
  %11 = load ptr, ptr %3, align 8, !tbaa !4
  %12 = getelementptr inbounds nuw %struct.AVProbeData, ptr %11, i32 0, i32 1
  %13 = load ptr, ptr %12, align 8, !tbaa !9
  store ptr %13, ptr %7, align 8, !tbaa !13
  %14 = load ptr, ptr %7, align 8, !tbaa !13
  %15 = call i32 (ptr, ptr, ...) @__isoc99_sscanf(ptr noundef %14, ptr noundef @.str.2, ptr noundef %5, ptr noundef %6, ptr noundef %4) #6
  %16 = icmp eq i32 %15, 3
  br i1 %16, label %17, label %37

17:                                               ; preds = %1
  call void @llvm.lifetime.start.p0(i64 8, ptr %8) #6
  %18 = load ptr, ptr %7, align 8, !tbaa !13
  %19 = call i64 @strcspn(ptr noundef %18, ptr noundef @.str.3) #7
  store i64 %19, ptr %8, align 8, !tbaa !14
  call void @llvm.lifetime.start.p0(i64 8, ptr %9) #6
  %20 = load i64, ptr %8, align 8, !tbaa !14
  %21 = load ptr, ptr %7, align 8, !tbaa !13
  %22 = load i64, ptr %8, align 8, !tbaa !14
  %23 = getelementptr inbounds nuw i8, ptr %21, i64 %22
  %24 = getelementptr inbounds i8, ptr %23, i64 1
  %25 = call i64 @strcspn(ptr noundef %24, ptr noundef @.str.3) #7
  %26 = add i64 %20, %25
  %27 = add i64 %26, 1
  store i64 %27, ptr %9, align 8, !tbaa !14
  %28 = load ptr, ptr %7, align 8, !tbaa !13
  %29 = call i64 @strcspn(ptr noundef %28, ptr noundef @.str.4) #7
  %30 = load i64, ptr %9, align 8, !tbaa !14
  %31 = icmp ugt i64 %29, %30
  br i1 %31, label %32, label %33

32:                                               ; preds = %17
  store i32 100, ptr %2, align 4
  store i32 1, ptr %10, align 4
  br label %34

33:                                               ; preds = %17
  store i32 0, ptr %10, align 4
  br label %34

34:                                               ; preds = %33, %32
  call void @llvm.lifetime.end.p0(i64 8, ptr %9) #6
  call void @llvm.lifetime.end.p0(i64 8, ptr %8) #6
  %35 = load i32, ptr %10, align 4
  switch i32 %35, label %38 [
    i32 0, label %36
  ]

36:                                               ; preds = %34
  br label %37

37:                                               ; preds = %36, %1
  store i32 0, ptr %2, align 4
  store i32 1, ptr %10, align 4
  br label %38

38:                                               ; preds = %37, %34
  call void @llvm.lifetime.end.p0(i64 8, ptr %7) #6
  call void @llvm.lifetime.end.p0(i64 8, ptr %6) #6
  call void @llvm.lifetime.end.p0(i64 8, ptr %5) #6
  call void @llvm.lifetime.end.p0(i64 1, ptr %4) #6
  %39 = load i32, ptr %2, align 4
  ret i32 %39
}