; Function Attrs: nofree nounwind uwtable
define internal range(i32 0, 101) i32 @pjs_probe(ptr noundef readonly captures(none) %0) #0 {
  %2 = alloca i8, align 1
  %3 = alloca i64, align 8
  %4 = alloca i64, align 8
  call void @llvm.lifetime.start.p0(i64 1, ptr nonnull %2) #6
  call void @llvm.lifetime.start.p0(i64 8, ptr nonnull %3) #6
  call void @llvm.lifetime.start.p0(i64 8, ptr nonnull %4) #6
  %5 = getelementptr inbounds nuw i8, ptr %0, i64 8
  %6 = load ptr, ptr %5, align 8, !tbaa !4
  %7 = call i32 (ptr, ptr, ...) @__isoc99_sscanf(ptr noundef %6, ptr noundef nonnull @.str.2, ptr noundef nonnull %3, ptr noundef nonnull %4, ptr noundef nonnull %2) #6
  %8 = icmp eq i32 %7, 3
  br i1 %8, label %9, label %17

9:                                                ; preds = %1
  %10 = call i64 @strcspn(ptr noundef %6, ptr noundef nonnull @.str.3) #7
  %11 = getelementptr inbounds nuw i8, ptr %6, i64 %10
  %12 = getelementptr inbounds nuw i8, ptr %11, i64 1
  %13 = call i64 @strcspn(ptr noundef nonnull %12, ptr noundef nonnull @.str.3) #7
  %14 = add i64 %10, 1
  %15 = add i64 %14, %13
  %16 = call i64 @strcspn(ptr noundef %6, ptr noundef nonnull @.str.4) #7
  %.not = icmp ugt i64 %16, %15
  br i1 %.not, label %18, label %17

17:                                               ; preds = %9, %1
  br label %18

18:                                               ; preds = %9, %17
  %.1 = phi i32 [ 0, %17 ], [ 100, %9 ]
  call void @llvm.lifetime.end.p0(i64 8, ptr nonnull %4) #6
  call void @llvm.lifetime.end.p0(i64 8, ptr nonnull %3) #6
  call void @llvm.lifetime.end.p0(i64 1, ptr nonnull %2) #6
  ret i32 %.1
}